target datalayout = "e-m:e-p270:32:32-p271:32:32-p272:64:64-i64:64-i128:128-f80:128-n8:16:32:64-S128"
target triple = "x86_64-pc-linux-gnu"

%struct.rb_data_type_struct = type { ptr, %struct.anon, ptr, ptr, i64 }
%struct.anon = type { ptr, ptr, ptr, ptr, [1 x ptr] }

@rb_eRuntimeError = external global i64, align 8
@ossl_sslctx_type = internal constant %struct.rb_data_type_struct { ptr @.str.186, %struct.anon { ptr @ossl_sslctx_mark, ptr @ossl_sslctx_free, ptr null, ptr null, [1 x ptr] zeroinitializer }, ptr null, ptr null, i64 33 }, align 8
@ossl_ssl_session_type = external constant %struct.rb_data_type_struct, align 8
@.str.230 = private unnamed_addr constant [32 x i8] c"SSL Session wasn't initialized.\00", align 1

; Function Attrs: nounwind sspstrong uwtable
define internal i64 @ossl_sslctx_session_add(i64 noundef %0, i64 noundef %1) #0 {
  %3 = alloca i64, align 8
  %4 = alloca i64, align 8
  %5 = alloca ptr, align 8
  %6 = alloca ptr, align 8
  store i64 %0, ptr %3, align 8, !tbaa !14
  store i64 %1, ptr %4, align 8, !tbaa !14
  call void @llvm.lifetime.start.p0(i64 8, ptr %5) #20
  call void @llvm.lifetime.start.p0(i64 8, ptr %6) #20
  br label %7

7:                                                ; preds = %2
  %8 = load i64, ptr %3, align 8, !tbaa !14
  %9 = call ptr @rb_check_typeddata(i64 noundef %8, ptr noundef @ossl_sslctx_type)
  store ptr %9, ptr %5, align 8, !tbaa !18
  br label %10

10:                                               ; preds = %7
  br label %11

11:                                               ; preds = %10
  br label %12

12:                                               ; preds = %11
  %13 = load i64, ptr %4, align 8, !tbaa !14
  %14 = call ptr @rb_check_typeddata(i64 noundef %13, ptr noundef @ossl_ssl_session_type)
  store ptr %14, ptr %6, align 8, !tbaa !43
  %15 = load ptr, ptr %6, align 8, !tbaa !43
  %16 = icmp ne ptr %15, null
  br i1 %16, label %19, label %17

17:                                               ; preds = %12
  %18 = load i64, ptr @rb_eRuntimeError, align 8, !tbaa !14
  call void (i64, ptr, ...) @ossl_raise(i64 noundef %18, ptr noundef @.str.230) #22
  unreachable

19:                                               ; preds = %12
  br label %20

20:                                               ; preds = %19
  br label %21

21:                                               ; preds = %20
  %22 = load ptr, ptr %5, align 8, !tbaa !18
  %23 = load ptr, ptr %6, align 8, !tbaa !43
  %24 = call i32 @SSL_CTX_add_session(ptr noundef %22, ptr noundef %23)
  %25 = icmp eq i32 %24, 1
  %26 = select i1 %25, i64 20, i64 0
  call void @llvm.lifetime.end.p0(i64 8, ptr %6) #20
  call void @llvm.lifetime.end.p0(i64 8, ptr %5) #20
  ret i64 %26
}